target datalayout = "e-m:e-p270:32:32-p271:32:32-p272:64:64-i64:64-i128:128-f80:128-n8:16:32:64-S128"
target triple = "x86_64-pc-linux-gnu"

%struct.nameData = type { [64 x i8] }
%struct.RelationData = type { %struct.RelFileLocator, ptr, i32, i32, i8, i8, i8, i8, i8, i32, i32, i32, i32, ptr, ptr, i32, %struct.LockInfoData, ptr, ptr, ptr, ptr, ptr, i8, ptr, ptr, ptr, ptr, ptr, ptr, i32, ptr, i8, ptr, ptr, i32, i8, i32, ptr, i8, ptr, ptr, ptr, ptr, ptr, ptr, ptr, i32, ptr, ptr, ptr, ptr, ptr, ptr, ptr, ptr, ptr, ptr, ptr, ptr, ptr, ptr, ptr, ptr, ptr, ptr, ptr, i32, i8, ptr }
%struct.RelFileLocator = type { i32, i32, i32 }
%struct.LockInfoData = type { %struct.LockRelId }
%struct.LockRelId = type { i32, i32 }
%struct.FormData_pg_class = type { i32, %struct.nameData, i32, i32, i32, i32, i32, i32, i32, i32, float, i32, i32, i8, i8, i8, i8, i16, i16, i8, i8, i8, i8, i8, i8, i8, i8, i32, i32, i32 }

@.str.1 = private unnamed_addr constant [11 x i8] c"relcache.c\00", align 1
@.str.64 = private unnamed_addr constant [70 x i8] c"cannot remove relcache entry for \22%s\22 because it has nonzero refcount\00", align 1
@__func__.AtEOSubXact_cleanup = private unnamed_addr constant [20 x i8] c"AtEOSubXact_cleanup\00", align 1

; Function Attrs: nounwind uwtable
define internal void @AtEOSubXact_cleanup(ptr noundef %0, i1 noundef zeroext %1, i32 noundef %2, i32 noundef %3) #0 {
  %5 = alloca ptr, align 8
  %6 = alloca i8, align 1
  %7 = alloca i32, align 4
  %8 = alloca i32, align 4
  store ptr %0, ptr %5, align 8
  %9 = zext i1 %1 to i8
  store i8 %9, ptr %6, align 1
  store i32 %2, ptr %7, align 4
  store i32 %3, ptr %8, align 4
  %10 = load ptr, ptr %5, align 8
  %11 = getelementptr inbounds nuw %struct.RelationData, ptr %10, i32 0, i32 9
  %12 = load i32, ptr %11, align 8
  %13 = load i32, ptr %7, align 4
  %14 = icmp eq i32 %12, %13
  br i1 %14, label %15, label %63

15:                                               ; preds = %4
  %16 = load i8, ptr %6, align 1, !range !4, !noundef !5
  %17 = trunc i8 %16 to i1
  br i1 %17, label %18, label %27

18:                                               ; preds = %15
  %19 = load ptr, ptr %5, align 8
  %20 = getelementptr inbounds nuw %struct.RelationData, ptr %19, i32 0, i32 12
  %21 = load i32, ptr %20, align 4
  %22 = icmp eq i32 %21, 0
  br i1 %22, label %23, label %27

23:                                               ; preds = %18
  %24 = load i32, ptr %8, align 4
  %25 = load ptr, ptr %5, align 8
  %26 = getelementptr inbounds nuw %struct.RelationData, ptr %25, i32 0, i32 9
  store i32 %24, ptr %26, align 8
  br label %62

27:                                               ; preds = %18, %15
  %28 = load ptr, ptr %5, align 8
  %29 = getelementptr inbounds nuw %struct.RelationData, ptr %28, i32 0, i32 2
  %30 = load i32, ptr %29, align 8
  %31 = icmp eq i32 %30, 0
  br i1 %31, label %32, label %42

32:                                               ; preds = %27
  %33 = load ptr, ptr %5, align 8
  %34 = getelementptr inbounds nuw %struct.RelationData, ptr %33, i32 0, i32 9
  store i32 0, ptr %34, align 8
  %35 = load ptr, ptr %5, align 8
  %36 = getelementptr inbounds nuw %struct.RelationData, ptr %35, i32 0, i32 10
  store i32 0, ptr %36, align 4
  %37 = load ptr, ptr %5, align 8
  %38 = getelementptr inbounds nuw %struct.RelationData, ptr %37, i32 0, i32 11
  store i32 0, ptr %38, align 8
  %39 = load ptr, ptr %5, align 8
  %40 = getelementptr inbounds nuw %struct.RelationData, ptr %39, i32 0, i32 12
  store i32 0, ptr %40, align 4
  %41 = load ptr, ptr %5, align 8
  call void @RelationClearRelation(ptr noundef %41)
  br label %114

42:                                               ; preds = %27
  %43 = load i32, ptr %8, align 4
  %44 = load ptr, ptr %5, align 8
  %45 = getelementptr inbounds nuw %struct.RelationData, ptr %44, i32 0, i32 9
  store i32 %43, ptr %45, align 8
  br label %46

46:                                               ; preds = %42
  br i1 false, label %47, label %49

47:                                               ; preds = %46
  %48 = call zeroext i1 @errstart_cold(i32 noundef 19, ptr noundef null) #12
  br i1 %48, label %51, label %59

49:                                               ; preds = %46
  %50 = call zeroext i1 @errstart(i32 noundef 19, ptr noundef null)
  br i1 %50, label %51, label %59

51:                                               ; preds = %49, %47
  %52 = load ptr, ptr %5, align 8
  %53 = getelementptr inbounds nuw %struct.RelationData, ptr %52, i32 0, i32 13
  %54 = load ptr, ptr %53, align 8
  %55 = getelementptr inbounds nuw %struct.FormData_pg_class, ptr %54, i32 0, i32 1
  %56 = getelementptr inbounds nuw %struct.nameData, ptr %55, i32 0, i32 0
  %57 = getelementptr inbounds [64 x i8], ptr %56, i64 0, i64 0
  %58 = call i32 (ptr, ...) @errmsg_internal(ptr noundef @.str.64, ptr noundef %57)
  call void @errfinish(ptr noundef @.str.1, i32 noundef 3431, ptr noundef @__func__.AtEOSubXact_cleanup)
  br label %59

59:                                               ; preds = %51, %49, %47
  br label %60

60:                                               ; preds = %59
  br label %61

61:                                               ; preds = %60
  br label %62

62:                                               ; preds = %61, %23
  br label %63

63:                                               ; preds = %62, %4
  %64 = load ptr, ptr %5, align 8
  %65 = getelementptr inbounds nuw %struct.RelationData, ptr %64, i32 0, i32 10
  %66 = load i32, ptr %65, align 4
  %67 = load i32, ptr %7, align 4
  %68 = icmp eq i32 %66, %67
  br i1 %68, label %69, label %80

69:                                               ; preds = %63
  %70 = load i8, ptr %6, align 1, !range !4, !noundef !5
  %71 = trunc i8 %70 to i1
  br i1 %71, label %72, label %76

72:                                               ; preds = %69
  %73 = load i32, ptr %8, align 4
  %74 = load ptr, ptr %5, align 8
  %75 = getelementptr inbounds nuw %struct.RelationData, ptr %74, i32 0, i32 10
  store i32 %73, ptr %75, align 4
  br label %79

76:                                               ; preds = %69
  %77 = load ptr, ptr %5, align 8
  %78 = getelementptr inbounds nuw %struct.RelationData, ptr %77, i32 0, i32 10
  store i32 0, ptr %78, align 4
  br label %79

79:                                               ; preds = %76, %72
  br label %80

80:                                               ; preds = %79, %63
  %81 = load ptr, ptr %5, align 8
  %82 = getelementptr inbounds nuw %struct.RelationData, ptr %81, i32 0, i32 11
  %83 = load i32, ptr %82, align 8
  %84 = load i32, ptr %7, align 4
  %85 = icmp eq i32 %83, %84
  br i1 %85, label %86, label %97

86:                                               ; preds = %80
  %87 = load i8, ptr %6, align 1, !range !4, !noundef !5
  %88 = trunc i8 %87 to i1
  br i1 %88, label %89, label %93

89:                                               ; preds = %86
  %90 = load i32, ptr %8, align 4
  %91 = load ptr, ptr %5, align 8
  %92 = getelementptr inbounds nuw %struct.RelationData, ptr %91, i32 0, i32 11
  store i32 %90, ptr %92, align 8
  br label %96

93:                                               ; preds = %86
  %94 = load ptr, ptr %5, align 8
  %95 = getelementptr inbounds nuw %struct.RelationData, ptr %94, i32 0, i32 11
  store i32 0, ptr %95, align 8
  br label %96

96:                                               ; preds = %93, %89
  br label %97

97:                                               ; preds = %96, %80
  %98 = load ptr, ptr %5, align 8
  %99 = getelementptr inbounds nuw %struct.RelationData, ptr %98, i32 0, i32 12
  %100 = load i32, ptr %99, align 4
  %101 = load i32, ptr %7, align 4
  %102 = icmp eq i32 %100, %101
  br i1 %102, label %103, label %114

103:                                              ; preds = %97
  %104 = load i8, ptr %6, align 1, !range !4, !noundef !5
  %105 = trunc i8 %104 to i1
  br i1 %105, label %106, label %110

106:                                              ; preds = %103
  %107 = load i32, ptr %8, align 4
  %108 = load ptr, ptr %5, align 8
  %109 = getelementptr inbounds nuw %struct.RelationData, ptr %108, i32 0, i32 12
  store i32 %107, ptr %109, align 4
  br label %113

110:                                              ; preds = %103
  %111 = load ptr, ptr %5, align 8
  %112 = getelementptr inbounds nuw %struct.RelationData, ptr %111, i32 0, i32 12
  store i32 0, ptr %112, align 4
  br label %113

113:                                              ; preds = %110, %106
  br label %114

114:                                              ; preds = %32, %113, %97
  ret void
}