; Function Attrs: nounwind uwtable
define internal fastcc void @AtEOSubXact_cleanup(ptr noundef %0, i1 noundef zeroext %1, i32 noundef %2, i32 noundef %3) unnamed_addr #0 {
  %5 = getelementptr inbounds nuw i8, ptr %0, i64 40
  %6 = load i32, ptr %5, align 8
  %7 = icmp eq i32 %6, %2
  br i1 %7, label %8, label %25

8:                                                ; preds = %4
  br i1 %1, label %9, label %13

9:                                                ; preds = %8
  %10 = getelementptr inbounds nuw i8, ptr %0, i64 52
  %11 = load i32, ptr %10, align 4
  %12 = icmp eq i32 %11, 0
  br i1 %12, label %.thread, label %13

13:                                               ; preds = %9, %8
  %14 = getelementptr inbounds nuw i8, ptr %0, i64 24
  %15 = load i32, ptr %14, align 8
  %16 = icmp eq i32 %15, 0
  br i1 %16, label %17, label %18

17:                                               ; preds = %13
  tail call void @llvm.memset.p0.i64(ptr noundef nonnull align 8 dereferenceable(16) %5, i8 0, i64 16, i1 false)
  tail call fastcc void @RelationClearRelation(ptr noundef nonnull %0)
  br label %53

18:                                               ; preds = %13
  store i32 %3, ptr %5, align 8
  %19 = tail call zeroext i1 @errstart(i32 noundef 19, ptr noundef null) #13
  br i1 %19, label %20, label %25

20:                                               ; preds = %18
  %21 = getelementptr inbounds nuw i8, ptr %0, i64 56
  %22 = load ptr, ptr %21, align 8
  %23 = getelementptr inbounds nuw i8, ptr %22, i64 4
  %24 = tail call i32 (ptr, ...) @errmsg_internal(ptr noundef nonnull @.str.64, ptr noundef nonnull %23) #13
  tail call void @errfinish(ptr noundef nonnull @.str.1, i32 noundef 3431, ptr noundef nonnull @__func__.AtEOSubXact_cleanup) #13
  br label %25

25:                                               ; preds = %20, %18, %4
  %26 = getelementptr inbounds nuw i8, ptr %0, i64 44
  %27 = load i32, ptr %26, align 4
  %28 = icmp eq i32 %27, %2
  br i1 %28, label %32, label %34

.thread:                                          ; preds = %9
  store i32 %3, ptr %5, align 8
  %29 = getelementptr inbounds nuw i8, ptr %0, i64 44
  %30 = load i32, ptr %29, align 4
  %31 = icmp eq i32 %30, %2
  br i1 %31, label %.thread32, label %34

32:                                               ; preds = %25
  br i1 %1, label %.thread32, label %.thread33

.thread32:                                        ; preds = %.thread, %32
  %33 = phi ptr [ %26, %32 ], [ %29, %.thread ]
  store i32 %3, ptr %33, align 4
  br label %34

34:                                               ; preds = %.thread, %.thread32, %25
  %35 = getelementptr inbounds nuw i8, ptr %0, i64 48
  %36 = load i32, ptr %35, align 8
  %37 = icmp eq i32 %36, %2
  br i1 %37, label %41, label %43

.thread33:                                        ; preds = %32
  store i32 0, ptr %26, align 4
  %38 = getelementptr inbounds nuw i8, ptr %0, i64 48
  %39 = load i32, ptr %38, align 8
  %40 = icmp eq i32 %39, %2
  br i1 %40, label %.thread34, label %43

41:                                               ; preds = %34
  br i1 %1, label %.thread35, label %.thread34

.thread34:                                        ; preds = %.thread33, %41
  %42 = phi ptr [ %35, %41 ], [ %38, %.thread33 ]
  store i32 0, ptr %42, align 8
  br label %43

43:                                               ; preds = %.thread33, %.thread34, %34
  %44 = getelementptr inbounds nuw i8, ptr %0, i64 52
  %45 = load i32, ptr %44, align 4
  %46 = icmp eq i32 %45, %2
  br i1 %46, label %50, label %53

.thread35:                                        ; preds = %41
  store i32 %3, ptr %35, align 8
  %47 = getelementptr inbounds nuw i8, ptr %0, i64 52
  %48 = load i32, ptr %47, align 4
  %49 = icmp eq i32 %48, %2
  br i1 %49, label %.thread36, label %53

50:                                               ; preds = %43
  br i1 %1, label %.thread36, label %52

.thread36:                                        ; preds = %.thread35, %50
  %51 = phi ptr [ %44, %50 ], [ %47, %.thread35 ]
  store i32 %3, ptr %51, align 4
  br label %53

52:                                               ; preds = %50
  store i32 0, ptr %44, align 4
  br label %53

53:                                               ; preds = %.thread35, %.thread36, %52, %43, %17
  ret void
}